; ModuleID = '56/1861.c'
source_filename = "56/1861.c"
target datalayout = "e-m:e-p270:32:32-p271:32:32-p272:64:64-i64:64-f80:128-n8:16:32:64-S128"
target triple = "x86_64-pc-linux-gnu"

@.str = private unnamed_addr constant [4 x i8] c"%ld\00", align 1
@.str.1 = private unnamed_addr constant [5 x i8] c"%ld\0A\00", align 1

; Function Attrs: noinline nounwind uwtable
define dso_local i32 @main() #0 {
  %1 = alloca i32, align 4
  %2 = alloca i64, align 8
  %3 = alloca i64, align 8
  %4 = alloca i64, align 8
  %5 = alloca i64, align 8
  %6 = alloca i64, align 8
  store i32 0, i32* %1, align 4
  %7 = call i32 (i8*, ...) @__isoc99_scanf(i8* getelementptr inbounds ([4 x i8], [4 x i8]* @.str, i64 0, i64 0), i64* %2)
  %8 = load i64, i64* %2, align 8
  %9 = sitofp i64 %8 to double
  %10 = call double @log(double %9) #3
  %11 = call double @log(double 1.000000e+01) #3
  %12 = fdiv double %10, %11
  %13 = fadd double %12, 1.000000e+00
  %14 = fptosi double %13 to i64
  store i64 %14, i64* %4, align 8
  %15 = load i64, i64* %4, align 8
  %16 = sitofp i64 %15 to double
  %17 = call double @pow(double 1.000000e+01, double %16) #3
  %18 = fptosi double %17 to i64
  store i64 %18, i64* %5, align 8
  store i64 1, i64* %6, align 8
  store i64 0, i64* %3, align 8
  br label %19

19:                                               ; preds = %22, %0
  %20 = load i64, i64* %5, align 8
  %21 = icmp sgt i64 %20, 1
  br i1 %21, label %22, label %37

22:                                               ; preds = %19
  %23 = load i64, i64* %3, align 8
  %24 = load i64, i64* %2, align 8
  %25 = load i64, i64* %5, align 8
  %26 = srem i64 %24, %25
  %27 = load i64, i64* %5, align 8
  %28 = sdiv i64 %27, 10
  %29 = sdiv i64 %26, %28
  %30 = load i64, i64* %6, align 8
  %31 = mul nsw i64 %29, %30
  %32 = add nsw i64 %23, %31
  store i64 %32, i64* %3, align 8
  %33 = load i64, i64* %5, align 8
  %34 = sdiv i64 %33, 10
  store i64 %34, i64* %5, align 8
  %35 = load i64, i64* %6, align 8
  %36 = mul nsw i64 %35, 10
  store i64 %36, i64* %6, align 8
  br label %19

37:                                               ; preds = %19
  %38 = load i64, i64* %3, align 8
  %39 = call i32 (i8*, ...) @printf(i8* getelementptr inbounds ([5 x i8], [5 x i8]* @.str.1, i64 0, i64 0), i64 %38)
  ret i32 0
}

declare dso_local i32 @__isoc99_scanf(i8*, ...) #1

; Function Attrs: nounwind
declare dso_local double @log(double) #2

; Function Attrs: nounwind
declare dso_local double @pow(double, double) #2

declare dso_local i32 @printf(i8*, ...) #1


!llvm.module.flags = !{!0}
!llvm.ident = !{!1}

!0 = !{i32 1, !"wchar_size", i32 4}
!1 = !{!"clang version 10.0.0-4ubuntu1 "}
