; ModuleID = 'source-C-CXX/55/1861.c'
source_filename = "source-C-CXX/55/1861.c"
target datalayout = "e-m:e-p270:32:32-p271:32:32-p272:64:64-i64:64-f80:128-n8:16:32:64-S128"
target triple = "x86_64-pc-linux-gnu"

@.str = private unnamed_addr constant [4 x i8] c"%ld\00", align 1
@.str.1 = private unnamed_addr constant [5 x i8] c"%ld\0A\00", align 1

; Function Attrs: nofree nounwind sspstrong uwtable
define dso_local i32 @main() local_unnamed_addr #0 {
  %1 = alloca i64, align 8
  %2 = bitcast i64* %1 to i8*
  call void @llvm.lifetime.start.p0i8(i64 8, i8* nonnull %2) #4
  %3 = call i32 (i8*, ...) @__isoc99_scanf(i8* getelementptr inbounds ([4 x i8], [4 x i8]* @.str, i64 0, i64 0), i64* nonnull %1)
  %4 = load i64, i64* %1, align 8, !tbaa !5
  %5 = sitofp i64 %4 to double
  %6 = call double @log(double %5) #4
  %7 = fdiv double %6, 0x40026BB1BBB55516
  %8 = fadd double %7, 1.000000e+00
  %9 = fptosi double %8 to i64
  %10 = sitofp i64 %9 to double
  %11 = call double @pow(double 1.000000e+01, double %10) #4
  %12 = fptosi double %11 to i64
  %13 = load i64, i64* %1, align 8
  %14 = icmp sgt i64 %12, 1
  br i1 %14, label %15, label %26

15:                                               ; preds = %0, %15
  %16 = phi i64 [ %24, %15 ], [ 1, %0 ]
  %17 = phi i64 [ %20, %15 ], [ %12, %0 ]
  %18 = phi i64 [ %23, %15 ], [ 0, %0 ]
  %19 = srem i64 %13, %17
  %20 = udiv i64 %17, 10
  %21 = sdiv i64 %19, %20
  %22 = mul nsw i64 %21, %16
  %23 = add nsw i64 %22, %18
  %24 = mul nsw i64 %16, 10
  %25 = icmp ugt i64 %17, 19
  br i1 %25, label %15, label %26, !llvm.loop !9

26:                                               ; preds = %15, %0
  %27 = phi i64 [ 0, %0 ], [ %23, %15 ]
  %28 = call i32 (i8*, ...) @printf(i8* nonnull dereferenceable(1) getelementptr inbounds ([5 x i8], [5 x i8]* @.str.1, i64 0, i64 0), i64 %27)
  call void @llvm.lifetime.end.p0i8(i64 8, i8* nonnull %2) #4
  ret i32 0
}

; Function Attrs: argmemonly mustprogress nofree nosync nounwind willreturn
declare void @llvm.lifetime.start.p0i8(i64 immarg, i8* nocapture) #1

; Function Attrs: nofree nounwind
declare noundef i32 @__isoc99_scanf(i8* nocapture noundef readonly, ...) local_unnamed_addr #2

; Function Attrs: mustprogress nofree nounwind willreturn
declare double @log(double) local_unnamed_addr #3

; Function Attrs: mustprogress nofree nounwind willreturn
declare double @pow(double, double) local_unnamed_addr #3

; Function Attrs: nofree nounwind
declare noundef i32 @printf(i8* nocapture noundef readonly, ...) local_unnamed_addr #2

; Function Attrs: argmemonly mustprogress nofree nosync nounwind willreturn
declare void @llvm.lifetime.end.p0i8(i64 immarg, i8* nocapture) #1


!llvm.module.flags = !{!0, !1, !2, !3}
!llvm.ident = !{!4}

!0 = !{i32 1, !"wchar_size", i32 4}
!1 = !{i32 7, !"PIC Level", i32 2}
!2 = !{i32 7, !"PIE Level", i32 2}
!3 = !{i32 7, !"uwtable", i32 1}
!4 = !{!"clang version 13.0.0"}
!5 = !{!6, !6, i64 0}
!6 = !{!"long", !7, i64 0}
!7 = !{!"omnipotent char", !8, i64 0}
!8 = !{!"Simple C/C++ TBAA"}
!9 = distinct !{!9, !10}
!10 = !{!"llvm.loop.mustprogress"}
